; ModuleID = '51/477.c'
source_filename = "51/477.c"
target datalayout = "e-m:e-p270:32:32-p271:32:32-p272:64:64-i64:64-f80:128-n8:16:32:64-S128"
target triple = "x86_64-pc-linux-gnu"

@.str = private unnamed_addr constant [3 x i8] c"%d\00", align 1
@.str.1 = private unnamed_addr constant [4 x i8] c"NO\0A\00", align 1
@.str.2 = private unnamed_addr constant [4 x i8] c"%d\0A\00", align 1
@.str.3 = private unnamed_addr constant [4 x i8] c"%s\0A\00", align 1

; Function Attrs: noinline nounwind uwtable
define dso_local i32 @main() #0 {
  %1 = alloca i32, align 4
  %2 = alloca [1000 x i8], align 16
  %3 = alloca [1000 x [50 x i8]], align 16
  %4 = alloca [1000 x i32], align 16
  %5 = alloca i32, align 4
  %6 = alloca i32, align 4
  %7 = alloca i32, align 4
  %8 = alloca i32, align 4
  %9 = alloca i32, align 4
  %10 = alloca i32, align 4
  store i32 0, i32* %1, align 4
  %11 = bitcast [1000 x i32]* %4 to i8*
  call void @llvm.memset.p0i8.i64(i8* align 16 %11, i8 0, i64 4000, i1 false)
  store i32 0, i32* %7, align 4
  store i32 0, i32* %8, align 4
  %12 = call i32 (i8*, ...) @__isoc99_scanf(i8* getelementptr inbounds ([3 x i8], [3 x i8]* @.str, i64 0, i64 0), i32* %7)
  %13 = call i32 @getchar()
  %14 = getelementptr inbounds [1000 x i8], [1000 x i8]* %2, i64 0, i64 0
  %15 = call i32 (i8*, ...) bitcast (i32 (...)* @gets to i32 (i8*, ...)*)(i8* %14)
  %16 = getelementptr inbounds [1000 x i8], [1000 x i8]* %2, i64 0, i64 0
  %17 = call i64 @strlen(i8* %16) #4
  %18 = trunc i64 %17 to i32
  store i32 %18, i32* %6, align 4
  store i32 0, i32* %9, align 4
  br label %19

19:                                               ; preds = %53, %0
  %20 = load i32, i32* %9, align 4
  %21 = load i32, i32* %6, align 4
  %22 = load i32, i32* %7, align 4
  %23 = sub nsw i32 %21, %22
  %24 = icmp sle i32 %20, %23
  br i1 %24, label %25, label %56

25:                                               ; preds = %19
  store i32 0, i32* %10, align 4
  br label %26

26:                                               ; preds = %43, %25
  %27 = load i32, i32* %10, align 4
  %28 = load i32, i32* %7, align 4
  %29 = icmp slt i32 %27, %28
  br i1 %29, label %30, label %46

30:                                               ; preds = %26
  %31 = load i32, i32* %9, align 4
  %32 = load i32, i32* %10, align 4
  %33 = add nsw i32 %31, %32
  %34 = sext i32 %33 to i64
  %35 = getelementptr inbounds [1000 x i8], [1000 x i8]* %2, i64 0, i64 %34
  %36 = load i8, i8* %35, align 1
  %37 = load i32, i32* %9, align 4
  %38 = sext i32 %37 to i64
  %39 = getelementptr inbounds [1000 x [50 x i8]], [1000 x [50 x i8]]* %3, i64 0, i64 %38
  %40 = load i32, i32* %10, align 4
  %41 = sext i32 %40 to i64
  %42 = getelementptr inbounds [50 x i8], [50 x i8]* %39, i64 0, i64 %41
  store i8 %36, i8* %42, align 1
  br label %43

43:                                               ; preds = %30
  %44 = load i32, i32* %10, align 4
  %45 = add nsw i32 %44, 1
  store i32 %45, i32* %10, align 4
  br label %26

46:                                               ; preds = %26
  %47 = load i32, i32* %9, align 4
  %48 = sext i32 %47 to i64
  %49 = getelementptr inbounds [1000 x [50 x i8]], [1000 x [50 x i8]]* %3, i64 0, i64 %48
  %50 = load i32, i32* %7, align 4
  %51 = sext i32 %50 to i64
  %52 = getelementptr inbounds [50 x i8], [50 x i8]* %49, i64 0, i64 %51
  store i8 0, i8* %52, align 1
  br label %53

53:                                               ; preds = %46
  %54 = load i32, i32* %9, align 4
  %55 = add nsw i32 %54, 1
  store i32 %55, i32* %9, align 4
  br label %19

56:                                               ; preds = %19
  store i32 0, i32* %9, align 4
  br label %57

57:                                               ; preds = %93, %56
  %58 = load i32, i32* %9, align 4
  %59 = load i32, i32* %6, align 4
  %60 = load i32, i32* %7, align 4
  %61 = sub nsw i32 %59, %60
  %62 = icmp sle i32 %58, %61
  br i1 %62, label %63, label %96

63:                                               ; preds = %57
  %64 = load i32, i32* %9, align 4
  store i32 %64, i32* %10, align 4
  br label %65

65:                                               ; preds = %89, %63
  %66 = load i32, i32* %10, align 4
  %67 = load i32, i32* %6, align 4
  %68 = load i32, i32* %7, align 4
  %69 = sub nsw i32 %67, %68
  %70 = icmp sle i32 %66, %69
  br i1 %70, label %71, label %92

71:                                               ; preds = %65
  %72 = load i32, i32* %9, align 4
  %73 = sext i32 %72 to i64
  %74 = getelementptr inbounds [1000 x [50 x i8]], [1000 x [50 x i8]]* %3, i64 0, i64 %73
  %75 = getelementptr inbounds [50 x i8], [50 x i8]* %74, i64 0, i64 0
  %76 = load i32, i32* %10, align 4
  %77 = sext i32 %76 to i64
  %78 = getelementptr inbounds [1000 x [50 x i8]], [1000 x [50 x i8]]* %3, i64 0, i64 %77
  %79 = getelementptr inbounds [50 x i8], [50 x i8]* %78, i64 0, i64 0
  %80 = call i32 @strcmp(i8* %75, i8* %79) #4
  %81 = icmp eq i32 %80, 0
  br i1 %81, label %82, label %88

82:                                               ; preds = %71
  %83 = load i32, i32* %9, align 4
  %84 = sext i32 %83 to i64
  %85 = getelementptr inbounds [1000 x i32], [1000 x i32]* %4, i64 0, i64 %84
  %86 = load i32, i32* %85, align 4
  %87 = add nsw i32 %86, 1
  store i32 %87, i32* %85, align 4
  br label %88

88:                                               ; preds = %82, %71
  br label %89

89:                                               ; preds = %88
  %90 = load i32, i32* %10, align 4
  %91 = add nsw i32 %90, 1
  store i32 %91, i32* %10, align 4
  br label %65

92:                                               ; preds = %65
  br label %93

93:                                               ; preds = %92
  %94 = load i32, i32* %9, align 4
  %95 = add nsw i32 %94, 1
  store i32 %95, i32* %9, align 4
  br label %57

96:                                               ; preds = %57
  store i32 0, i32* %9, align 4
  br label %97

97:                                               ; preds = %116, %96
  %98 = load i32, i32* %9, align 4
  %99 = load i32, i32* %6, align 4
  %100 = load i32, i32* %7, align 4
  %101 = sub nsw i32 %99, %100
  %102 = icmp slt i32 %98, %101
  br i1 %102, label %103, label %119

103:                                              ; preds = %97
  %104 = load i32, i32* %9, align 4
  %105 = sext i32 %104 to i64
  %106 = getelementptr inbounds [1000 x i32], [1000 x i32]* %4, i64 0, i64 %105
  %107 = load i32, i32* %106, align 4
  %108 = load i32, i32* %8, align 4
  %109 = icmp sgt i32 %107, %108
  br i1 %109, label %110, label %115

110:                                              ; preds = %103
  %111 = load i32, i32* %9, align 4
  %112 = sext i32 %111 to i64
  %113 = getelementptr inbounds [1000 x i32], [1000 x i32]* %4, i64 0, i64 %112
  %114 = load i32, i32* %113, align 4
  store i32 %114, i32* %8, align 4
  br label %115

115:                                              ; preds = %110, %103
  br label %116

116:                                              ; preds = %115
  %117 = load i32, i32* %9, align 4
  %118 = add nsw i32 %117, 1
  store i32 %118, i32* %9, align 4
  br label %97

119:                                              ; preds = %97
  %120 = load i32, i32* %8, align 4
  %121 = icmp eq i32 %120, 1
  br i1 %121, label %122, label %124

122:                                              ; preds = %119
  %123 = call i32 (i8*, ...) @printf(i8* getelementptr inbounds ([4 x i8], [4 x i8]* @.str.1, i64 0, i64 0))
  br label %151

124:                                              ; preds = %119
  %125 = load i32, i32* %8, align 4
  %126 = call i32 (i8*, ...) @printf(i8* getelementptr inbounds ([4 x i8], [4 x i8]* @.str.2, i64 0, i64 0), i32 %125)
  store i32 0, i32* %9, align 4
  br label %127

127:                                              ; preds = %147, %124
  %128 = load i32, i32* %9, align 4
  %129 = load i32, i32* %6, align 4
  %130 = load i32, i32* %7, align 4
  %131 = sub nsw i32 %129, %130
  %132 = icmp sle i32 %128, %131
  br i1 %132, label %133, label %150

133:                                              ; preds = %127
  %134 = load i32, i32* %9, align 4
  %135 = sext i32 %134 to i64
  %136 = getelementptr inbounds [1000 x i32], [1000 x i32]* %4, i64 0, i64 %135
  %137 = load i32, i32* %136, align 4
  %138 = load i32, i32* %8, align 4
  %139 = icmp eq i32 %137, %138
  br i1 %139, label %140, label %146

140:                                              ; preds = %133
  %141 = load i32, i32* %9, align 4
  %142 = sext i32 %141 to i64
  %143 = getelementptr inbounds [1000 x [50 x i8]], [1000 x [50 x i8]]* %3, i64 0, i64 %142
  %144 = getelementptr inbounds [50 x i8], [50 x i8]* %143, i64 0, i64 0
  %145 = call i32 (i8*, ...) @printf(i8* getelementptr inbounds ([4 x i8], [4 x i8]* @.str.3, i64 0, i64 0), i8* %144)
  br label %146

146:                                              ; preds = %140, %133
  br label %147

147:                                              ; preds = %146
  %148 = load i32, i32* %9, align 4
  %149 = add nsw i32 %148, 1
  store i32 %149, i32* %9, align 4
  br label %127

150:                                              ; preds = %127
  br label %151

151:                                              ; preds = %150, %122
  %152 = load i32, i32* %1, align 4
  ret i32 %152
}

; Function Attrs: argmemonly nounwind willreturn
declare void @llvm.memset.p0i8.i64(i8* nocapture writeonly, i8, i64, i1 immarg) #1

declare dso_local i32 @__isoc99_scanf(i8*, ...) #2

declare dso_local i32 @getchar() #2

declare dso_local i32 @gets(...) #2

; Function Attrs: nounwind readonly
declare dso_local i64 @strlen(i8*) #3

; Function Attrs: nounwind readonly
declare dso_local i32 @strcmp(i8*, i8*) #3

declare dso_local i32 @printf(i8*, ...) #2


!llvm.module.flags = !{!0}
!llvm.ident = !{!1}

!0 = !{i32 1, !"wchar_size", i32 4}
!1 = !{!"clang version 10.0.0-4ubuntu1 "}
